target datalayout = "e-m:e-p270:32:32-p271:32:32-p272:64:64-i64:64-i128:128-f80:128-n8:16:32:64-S128"
target triple = "x86_64-unknown-linux-gnu"

%"class.hermes::Value" = type { i8, %"class.hermes::Type", %"class.llvh::SmallVector" }
%"class.hermes::Type" = type { i16, i16 }
%"class.llvh::SmallVector" = type { %"class.llvh::SmallVectorImpl", %"struct.llvh::SmallVectorStorage" }
%"class.llvh::SmallVectorImpl" = type { %"class.llvh::SmallVectorTemplateBase" }
%"class.llvh::SmallVectorTemplateBase" = type { %"class.llvh::SmallVectorTemplateCommon" }
%"class.llvh::SmallVectorTemplateCommon" = type { %"class.llvh::SmallVectorBase" }
%"class.llvh::SmallVectorBase" = type { ptr, i32, i32 }
%"struct.llvh::SmallVectorStorage" = type { [2 x %"struct.llvh::AlignedCharArrayUnion"] }
%"struct.llvh::AlignedCharArrayUnion" = type { %"struct.llvh::AlignedCharArray" }
%"struct.llvh::AlignedCharArray" = type { [8 x i8] }
%"class.llvh::ilist_node_base" = type { ptr, ptr }
%"class.hermes::ScopeDesc" = type <{ %"class.hermes::Value", ptr, %"class.llvh::SmallVector.7", %"class.std::shared_ptr", ptr, %"class.llvh::SmallVector.13", i8, [7 x i8] }>
%"class.llvh::SmallVector.7" = type { %"class.llvh::SmallVectorImpl.8", %"struct.llvh::SmallVectorStorage.11" }
%"class.llvh::SmallVectorImpl.8" = type { %"class.llvh::SmallVectorTemplateBase.9" }
%"class.llvh::SmallVectorTemplateBase.9" = type { %"class.llvh::SmallVectorTemplateCommon.10" }
%"class.llvh::SmallVectorTemplateCommon.10" = type { %"class.llvh::SmallVectorBase" }
%"struct.llvh::SmallVectorStorage.11" = type { [8 x %"struct.llvh::AlignedCharArrayUnion.12"] }
%"struct.llvh::AlignedCharArrayUnion.12" = type { %"struct.llvh::AlignedCharArray" }
%"class.std::shared_ptr" = type { %"class.std::__shared_ptr" }
%"class.std::__shared_ptr" = type { ptr, %"class.std::__shared_count" }
%"class.std::__shared_count" = type { ptr }
%"class.llvh::SmallVector.13" = type { %"class.llvh::SmallVectorImpl.14", %"struct.llvh::SmallVectorStorage.17" }
%"class.llvh::SmallVectorImpl.14" = type { %"class.llvh::SmallVectorTemplateBase.15" }
%"class.llvh::SmallVectorTemplateBase.15" = type { %"class.llvh::SmallVectorTemplateCommon.16" }
%"class.llvh::SmallVectorTemplateCommon.16" = type { %"class.llvh::SmallVectorBase" }
%"struct.llvh::SmallVectorStorage.17" = type { [8 x %"struct.llvh::AlignedCharArrayUnion.18"] }
%"struct.llvh::AlignedCharArrayUnion.18" = type { %"struct.llvh::AlignedCharArray" }
%"class.llvh::ilist_node_impl.24" = type { %"class.llvh::ilist_node_base" }
%"class.llvh::ilist_iterator" = type { ptr }
%"class.hermes::Module" = type <{ %"class.hermes::Value", %"class.std::shared_ptr.40", ptr, %"class.llvh::iplist.43", %"class.std::vector", %"class.llvh::DenseMap", %"class.hermes::ScopeDesc", %"class.hermes::GlobalObject", %"class.hermes::LiteralEmpty", %"class.hermes::LiteralUndefined", %"class.hermes::LiteralNull", %"class.hermes::LiteralBool", %"class.hermes::LiteralBool", %"class.hermes::EmptySentinel", %"class.llvh::FoldingSet", %"class.llvh::FoldingSet.52", %"class.llvh::FoldingSet.54", %"class.llvh::DenseMap.56", %"class.std::deque", %"class.llvh::DenseMap.62", %"class.llvh::DenseMap.56", %"class.llvh::DenseMap.65", i8, [7 x i8], %"class.std::unordered_map", %"class.std::unordered_map.73", i8, [7 x i8] }>
%"class.std::shared_ptr.40" = type { %"class.std::__shared_ptr.41" }
%"class.std::__shared_ptr.41" = type { ptr, %"class.std::__shared_count" }
%"class.llvh::iplist.43" = type { %"class.llvh::iplist_impl.44" }
%"class.llvh::iplist_impl.44" = type { %"class.llvh::simple_ilist.49" }
%"class.llvh::simple_ilist.49" = type { %"class.llvh::ilist_sentinel.51" }
%"class.llvh::ilist_sentinel.51" = type { %"class.llvh::ilist_node_impl.24" }
%"class.std::vector" = type { %"struct.std::_Vector_base" }
%"struct.std::_Vector_base" = type { %"struct.std::_Vector_base<hermes::GlobalObjectProperty *, std::allocator<hermes::GlobalObjectProperty *>>::_Vector_impl" }
%"struct.std::_Vector_base<hermes::GlobalObjectProperty *, std::allocator<hermes::GlobalObjectProperty *>>::_Vector_impl" = type { %"struct.std::_Vector_base<hermes::GlobalObjectProperty *, std::allocator<hermes::GlobalObjectProperty *>>::_Vector_impl_data" }
%"struct.std::_Vector_base<hermes::GlobalObjectProperty *, std::allocator<hermes::GlobalObjectProperty *>>::_Vector_impl_data" = type { ptr, ptr, ptr }
%"class.llvh::DenseMap" = type <{ ptr, i32, i32, i32, [4 x i8] }>
%"class.hermes::GlobalObject" = type { %"class.hermes::Literal" }
%"class.hermes::Literal" = type { %"class.hermes::Value" }
%"class.hermes::LiteralEmpty" = type { %"class.hermes::Literal" }
%"class.hermes::LiteralUndefined" = type { %"class.hermes::Literal" }
%"class.hermes::LiteralNull" = type { %"class.hermes::Literal" }
%"class.hermes::LiteralBool" = type <{ %"class.hermes::Literal", i8, [7 x i8] }>
%"class.hermes::EmptySentinel" = type { %"class.hermes::Value" }
%"class.llvh::FoldingSet" = type { %"class.llvh::FoldingSetImpl" }
%"class.llvh::FoldingSetImpl" = type { %"class.llvh::FoldingSetBase" }
%"class.llvh::FoldingSetBase" = type { ptr, ptr, i32, i32 }
%"class.llvh::FoldingSet.52" = type { %"class.llvh::FoldingSetImpl.53" }
%"class.llvh::FoldingSetImpl.53" = type { %"class.llvh::FoldingSetBase" }
%"class.llvh::FoldingSet.54" = type { %"class.llvh::FoldingSetImpl.55" }
%"class.llvh::FoldingSetImpl.55" = type { %"class.llvh::FoldingSetBase" }
%"class.std::deque" = type { %"class.std::_Deque_base" }
%"class.std::_Deque_base" = type { %"struct.std::_Deque_base<hermes::Module::CJSModule, std::allocator<hermes::Module::CJSModule>>::_Deque_impl" }
%"struct.std::_Deque_base<hermes::Module::CJSModule, std::allocator<hermes::Module::CJSModule>>::_Deque_impl" = type { %"struct.std::_Deque_base<hermes::Module::CJSModule, std::allocator<hermes::Module::CJSModule>>::_Deque_impl_data" }
%"struct.std::_Deque_base<hermes::Module::CJSModule, std::allocator<hermes::Module::CJSModule>>::_Deque_impl_data" = type { ptr, i64, %"struct.std::_Deque_iterator", %"struct.std::_Deque_iterator" }
%"struct.std::_Deque_iterator" = type { ptr, ptr, ptr, ptr }
%"class.llvh::DenseMap.62" = type <{ ptr, i32, i32, i32, [4 x i8] }>
%"class.llvh::DenseMap.56" = type <{ ptr, i32, i32, i32, [4 x i8] }>
%"class.llvh::DenseMap.65" = type <{ ptr, i32, i32, i32, [4 x i8] }>
%"class.std::unordered_map" = type { %"class.std::_Hashtable" }
%"class.std::_Hashtable" = type { ptr, i64, %"struct.std::__detail::_Hash_node_base", i64, %"struct.std::__detail::_Prime_rehash_policy", ptr }
%"struct.std::__detail::_Hash_node_base" = type { ptr }
%"struct.std::__detail::_Prime_rehash_policy" = type { float, i64 }
%"class.std::unordered_map.73" = type { %"class.std::_Hashtable.74" }
%"class.std::_Hashtable.74" = type { ptr, i64, %"struct.std::__detail::_Hash_node_base", i64, %"struct.std::__detail::_Prime_rehash_policy", ptr }

; Function Attrs: mustprogress nounwind uwtable
define linkonce_odr hidden noundef ptr @_ZNK4llvh15ilist_node_baseILb0EE7getNextEv(ptr noundef nonnull align 8 dereferenceable(16) %this) #0 comdat align 2 {
entry:
  %this.addr = alloca ptr, align 8
  store ptr %this, ptr %this.addr, align 8
  %this1 = load ptr, ptr %this.addr, align 8
  %Next = getelementptr inbounds %"class.llvh::ilist_node_base", ptr %this1, i32 0, i32 1
  %0 = load ptr, ptr %Next, align 8
  ret ptr %0
}

; Function Attrs: mustprogress nounwind uwtable
define linkonce_odr hidden noundef ptr @_ZN4llvh12ilist_detail10NodeAccess11getValuePtrINS0_12node_optionsIN6hermes8FunctionELb0ELb0EvEEEENT_7pointerEPNS_15ilist_node_implIS7_EE(ptr noundef %N) #0 comdat align 2 {
entry:
  %N.addr = alloca ptr, align 8
  store ptr %N, ptr %N.addr, align 8
  %0 = load ptr, ptr %N.addr, align 8
  ret ptr %0
}

; Function Attrs: mustprogress nounwind uwtable
define linkonce_odr hidden void @_ZN4llvh14ilist_iteratorINS_12ilist_detail12node_optionsIN6hermes8FunctionELb0ELb0EvEELb0ELb0EEC2ERNS_15ilist_node_implIS5_EE(ptr noundef nonnull align 8 dereferenceable(8) %this, ptr noundef nonnull align 8 dereferenceable(16) %N) unnamed_addr #0 comdat align 2 {
entry:
  %this.addr = alloca ptr, align 8
  %N.addr = alloca ptr, align 8
  store ptr %this, ptr %this.addr, align 8
  store ptr %N, ptr %N.addr, align 8
  %this1 = load ptr, ptr %this.addr, align 8
  %NodePtr = getelementptr inbounds %"class.llvh::ilist_iterator", ptr %this1, i32 0, i32 0
  %0 = load ptr, ptr %N.addr, align 8
  store ptr %0, ptr %NodePtr, align 8
  ret void
}

; Function Attrs: mustprogress nounwind uwtable
define linkonce_odr hidden noundef ptr @_ZN4llvh15ilist_node_implINS_12ilist_detail12node_optionsIN6hermes8FunctionELb0ELb0EvEEE7getNextEv(ptr noundef nonnull align 8 dereferenceable(16) %this) #0 comdat align 2 {
entry:
  %this.addr = alloca ptr, align 8
  store ptr %this, ptr %this.addr, align 8
  %this1 = load ptr, ptr %this.addr, align 8
  %call = call noundef ptr @_ZNK4llvh15ilist_node_baseILb0EE7getNextEv(ptr noundef nonnull align 8 dereferenceable(16) %this1)
  ret ptr %call
}

; Function Attrs: mustprogress nounwind uwtable
define linkonce_odr hidden noundef ptr @_ZN4llvh12ilist_detail18SpecificNodeAccessINS0_12node_optionsIN6hermes8FunctionELb0ELb0EvEEE11getValuePtrEPNS_15ilist_node_implIS5_EE(ptr noundef %N) #0 comdat align 2 {
entry:
  %N.addr = alloca ptr, align 8
  store ptr %N, ptr %N.addr, align 8
  %0 = load ptr, ptr %N.addr, align 8
  %call = call noundef ptr @_ZN4llvh12ilist_detail10NodeAccess11getValuePtrINS0_12node_optionsIN6hermes8FunctionELb0ELb0EvEEEENT_7pointerEPNS_15ilist_node_implIS7_EE(ptr noundef %0)
  ret ptr %call
}

; Function Attrs: mustprogress nounwind uwtable
define linkonce_odr hidden ptr @_ZN4llvh12simple_ilistIN6hermes8FunctionEJEE3endEv(ptr noundef nonnull align 8 dereferenceable(16) %this) #0 comdat align 2 {
entry:
  %retval = alloca %"class.llvh::ilist_iterator", align 8
  %this.addr = alloca ptr, align 8
  store ptr %this, ptr %this.addr, align 8
  %this1 = load ptr, ptr %this.addr, align 8
  %Sentinel = getelementptr inbounds %"class.llvh::simple_ilist.49", ptr %this1, i32 0, i32 0
  call void @_ZN4llvh14ilist_iteratorINS_12ilist_detail12node_optionsIN6hermes8FunctionELb0ELb0EvEELb0ELb0EEC2ERNS_15ilist_node_implIS5_EE(ptr noundef nonnull align 8 dereferenceable(8) %retval, ptr noundef nonnull align 8 dereferenceable(16) %Sentinel)
  %coerce.dive = getelementptr inbounds %"class.llvh::ilist_iterator", ptr %retval, i32 0, i32 0
  %0 = load ptr, ptr %coerce.dive, align 8
  ret ptr %0
}

; Function Attrs: mustprogress nounwind uwtable
define linkonce_odr hidden ptr @_ZN4llvh12simple_ilistIN6hermes8FunctionEJEE5beginEv(ptr noundef nonnull align 8 dereferenceable(16) %this) #0 comdat align 2 {
entry:
  %retval = alloca %"class.llvh::ilist_iterator", align 8
  %this.addr = alloca ptr, align 8
  %ref.tmp = alloca %"class.llvh::ilist_iterator", align 8
  store ptr %this, ptr %this.addr, align 8
  %this1 = load ptr, ptr %this.addr, align 8
  %Sentinel = getelementptr inbounds %"class.llvh::simple_ilist.49", ptr %this1, i32 0, i32 0
  call void @_ZN4llvh14ilist_iteratorINS_12ilist_detail12node_optionsIN6hermes8FunctionELb0ELb0EvEELb0ELb0EEC2ERNS_15ilist_node_implIS5_EE(ptr noundef nonnull align 8 dereferenceable(8) %ref.tmp, ptr noundef nonnull align 8 dereferenceable(16) %Sentinel)
  %call = call noundef nonnull align 8 dereferenceable(8) ptr @_ZN4llvh14ilist_iteratorINS_12ilist_detail12node_optionsIN6hermes8FunctionELb0ELb0EvEELb0ELb0EEppEv(ptr noundef nonnull align 8 dereferenceable(8) %ref.tmp)
  call void @llvm.memcpy.p0.p0.i64(ptr align 8 %retval, ptr align 8 %call, i64 8, i1 false)
  %coerce.dive = getelementptr inbounds %"class.llvh::ilist_iterator", ptr %retval, i32 0, i32 0
  %0 = load ptr, ptr %coerce.dive, align 8
  ret ptr %0
}

; Function Attrs: mustprogress nounwind uwtable
define linkonce_odr hidden noundef nonnull align 8 dereferenceable(8) ptr @_ZN4llvh14ilist_iteratorINS_12ilist_detail12node_optionsIN6hermes8FunctionELb0ELb0EvEELb0ELb0EEppEv(ptr noundef nonnull align 8 dereferenceable(8) %this) #0 comdat align 2 {
entry:
  %this.addr = alloca ptr, align 8
  store ptr %this, ptr %this.addr, align 8
  %this1 = load ptr, ptr %this.addr, align 8
  %NodePtr = getelementptr inbounds %"class.llvh::ilist_iterator", ptr %this1, i32 0, i32 0
  %0 = load ptr, ptr %NodePtr, align 8
  %call = call noundef ptr @_ZN4llvh15ilist_node_implINS_12ilist_detail12node_optionsIN6hermes8FunctionELb0ELb0EvEEE7getNextEv(ptr noundef nonnull align 8 dereferenceable(16) %0)
  %NodePtr2 = getelementptr inbounds %"class.llvh::ilist_iterator", ptr %this1, i32 0, i32 0
  store ptr %call, ptr %NodePtr2, align 8
  ret ptr %this1
}

; Function Attrs: mustprogress nounwind uwtable
define linkonce_odr hidden noundef nonnull align 8 dereferenceable(304) ptr @_ZNK4llvh14ilist_iteratorINS_12ilist_detail12node_optionsIN6hermes8FunctionELb0ELb0EvEELb0ELb0EEdeEv(ptr noundef nonnull align 8 dereferenceable(8) %this) #0 comdat align 2 {
entry:
  %this.addr = alloca ptr, align 8
  store ptr %this, ptr %this.addr, align 8
  %this1 = load ptr, ptr %this.addr, align 8
  %NodePtr = getelementptr inbounds %"class.llvh::ilist_iterator", ptr %this1, i32 0, i32 0
  %0 = load ptr, ptr %NodePtr, align 8
  %call = call noundef ptr @_ZN4llvh12ilist_detail18SpecificNodeAccessINS0_12node_optionsIN6hermes8FunctionELb0ELb0EvEEE11getValuePtrEPNS_15ilist_node_implIS5_EE(ptr noundef %0)
  ret ptr %call
}

; Function Attrs: mustprogress nounwind uwtable
define linkonce_odr hidden noundef zeroext i1 @_ZN4llvhneERKNS_14ilist_iteratorINS_12ilist_detail12node_optionsIN6hermes8FunctionELb0ELb0EvEELb0ELb0EEES8_(ptr noundef nonnull align 8 dereferenceable(8) %LHS, ptr noundef nonnull align 8 dereferenceable(8) %RHS) #0 comdat {
entry:
  %LHS.addr = alloca ptr, align 8
  %RHS.addr = alloca ptr, align 8
  store ptr %LHS, ptr %LHS.addr, align 8
  store ptr %RHS, ptr %RHS.addr, align 8
  %0 = load ptr, ptr %LHS.addr, align 8
  %NodePtr = getelementptr inbounds %"class.llvh::ilist_iterator", ptr %0, i32 0, i32 0
  %1 = load ptr, ptr %NodePtr, align 8
  %2 = load ptr, ptr %RHS.addr, align 8
  %NodePtr1 = getelementptr inbounds %"class.llvh::ilist_iterator", ptr %2, i32 0, i32 0
  %3 = load ptr, ptr %NodePtr1, align 8
  %cmp = icmp ne ptr %1, %3
  ret i1 %cmp
}

; Function Attrs: mustprogress nounwind uwtable
define linkonce_odr hidden ptr @_ZN6hermes6Module3endEv(ptr noundef nonnull align 8 dereferenceable(1033) %this) #0 comdat align 2 {
entry:
  %retval = alloca %"class.llvh::ilist_iterator", align 8
  %this.addr = alloca ptr, align 8
  store ptr %this, ptr %this.addr, align 8
  %this1 = load ptr, ptr %this.addr, align 8
  %FunctionList = getelementptr inbounds %"class.hermes::Module", ptr %this1, i32 0, i32 3
  %call = call ptr @_ZN4llvh12simple_ilistIN6hermes8FunctionEJEE3endEv(ptr noundef nonnull align 8 dereferenceable(16) %FunctionList)
  %coerce.dive = getelementptr inbounds %"class.llvh::ilist_iterator", ptr %retval, i32 0, i32 0
  store ptr %call, ptr %coerce.dive, align 8
  %coerce.dive2 = getelementptr inbounds %"class.llvh::ilist_iterator", ptr %retval, i32 0, i32 0
  %0 = load ptr, ptr %coerce.dive2, align 8
  ret ptr %0
}

; Function Attrs: mustprogress nounwind uwtable
define linkonce_odr hidden ptr @_ZN6hermes6Module5beginEv(ptr noundef nonnull align 8 dereferenceable(1033) %this) #0 comdat align 2 {
entry:
  %retval = alloca %"class.llvh::ilist_iterator", align 8
  %this.addr = alloca ptr, align 8
  store ptr %this, ptr %this.addr, align 8
  %this1 = load ptr, ptr %this.addr, align 8
  %FunctionList = getelementptr inbounds %"class.hermes::Module", ptr %this1, i32 0, i32 3
  %call = call ptr @_ZN4llvh12simple_ilistIN6hermes8FunctionEJEE5beginEv(ptr noundef nonnull align 8 dereferenceable(16) %FunctionList)
  %coerce.dive = getelementptr inbounds %"class.llvh::ilist_iterator", ptr %retval, i32 0, i32 0
  store ptr %call, ptr %coerce.dive, align 8
  %coerce.dive2 = getelementptr inbounds %"class.llvh::ilist_iterator", ptr %retval, i32 0, i32 0
  %0 = load ptr, ptr %coerce.dive2, align 8
  ret ptr %0
}

; Function Attrs: mustprogress nounwind uwtable
define hidden void @_ZN6hermes6Module9viewGraphEv(ptr noundef nonnull align 8 dereferenceable(1033) %this) #0 align 2 {
entry:
  %this.addr = alloca ptr, align 8
  %__range1 = alloca ptr, align 8
  %__begin1 = alloca %"class.llvh::ilist_iterator", align 8
  %__end1 = alloca %"class.llvh::ilist_iterator", align 8
  %F = alloca ptr, align 8
  store ptr %this, ptr %this.addr, align 8
  %this1 = load ptr, ptr %this.addr, align 8
  store ptr %this1, ptr %__range1, align 8
  %0 = load ptr, ptr %__range1, align 8
  %call = call ptr @_ZN6hermes6Module5beginEv(ptr noundef nonnull align 8 dereferenceable(1033) %0)
  %coerce.dive = getelementptr inbounds %"class.llvh::ilist_iterator", ptr %__begin1, i32 0, i32 0
  store ptr %call, ptr %coerce.dive, align 8
  %1 = load ptr, ptr %__range1, align 8
  %call2 = call ptr @_ZN6hermes6Module3endEv(ptr noundef nonnull align 8 dereferenceable(1033) %1)
  %coerce.dive3 = getelementptr inbounds %"class.llvh::ilist_iterator", ptr %__end1, i32 0, i32 0
  store ptr %call2, ptr %coerce.dive3, align 8
  br label %for.cond

for.cond:                                         ; preds = %for.inc, %entry
  %call4 = call noundef zeroext i1 @_ZN4llvhneERKNS_14ilist_iteratorINS_12ilist_detail12node_optionsIN6hermes8FunctionELb0ELb0EvEELb0ELb0EEES8_(ptr noundef nonnull align 8 dereferenceable(8) %__begin1, ptr noundef nonnull align 8 dereferenceable(8) %__end1)
  br i1 %call4, label %for.body, label %for.end

for.body:                                         ; preds = %for.cond
  %call5 = call noundef nonnull align 8 dereferenceable(304) ptr @_ZNK4llvh14ilist_iteratorINS_12ilist_detail12node_optionsIN6hermes8FunctionELb0ELb0EvEELb0ELb0EEdeEv(ptr noundef nonnull align 8 dereferenceable(8) %__begin1)
  store ptr %call5, ptr %F, align 8
  %2 = load ptr, ptr %F, align 8
  call void @_ZN6hermes9viewGraphEPNS_8FunctionE(ptr noundef %2)
  br label %for.inc

for.inc:                                          ; preds = %for.body
  %call6 = call noundef nonnull align 8 dereferenceable(8) ptr @_ZN4llvh14ilist_iteratorINS_12ilist_detail12node_optionsIN6hermes8FunctionELb0ELb0EvEELb0ELb0EEppEv(ptr noundef nonnull align 8 dereferenceable(8) %__begin1)
  br label %for.cond

for.end:                                          ; preds = %for.cond
  ret void
}