; Function Attrs: mustprogress nounwind uwtable
define hidden void @_ZN6hermes6Module9viewGraphEv(ptr noundef nonnull readonly align 8 dereferenceable(1033) %this) local_unnamed_addr #0 align 2 {
entry:
  %Next.i.i.i.i.i = getelementptr inbounds i8, ptr %this, i64 72
  %FunctionList.i = getelementptr inbounds i8, ptr %this, i64 64
  %__begin1.sroa.0.04 = load ptr, ptr %Next.i.i.i.i.i, align 8
  %cmp.i.not5 = icmp eq ptr %__begin1.sroa.0.04, %FunctionList.i
  br i1 %cmp.i.not5, label %for.end, label %for.body

for.body:                                         ; preds = %entry, %for.body
  %__begin1.sroa.0.06 = phi ptr [ %__begin1.sroa.0.0, %for.body ], [ %__begin1.sroa.0.04, %entry ]
  tail call void @_ZN6hermes9viewGraphEPNS_8FunctionE(ptr noundef nonnull %__begin1.sroa.0.06) #26
  %Next.i.i.i = getelementptr inbounds i8, ptr %__begin1.sroa.0.06, i64 8
  %__begin1.sroa.0.0 = load ptr, ptr %Next.i.i.i, align 8
  %cmp.i.not = icmp eq ptr %__begin1.sroa.0.0, %FunctionList.i
  br i1 %cmp.i.not, label %for.end, label %for.body

for.end:                                          ; preds = %for.body, %entry
  ret void
}